Certificate:
    Data:
        Version: 1 (0x0)
        Serial Number: 4660 (0x1234)
        Signature Algorithm: md5WithRSAEncryption
        Issuer: C=RU, ST=Moscow, L=Moscow, O=great no.1 company, OU=00CA, CN=root_great_n1.com
        Validity
            Not Before: May 29 14:24:29 2022 GMT
            Not After : May 29 14:24:29 2023 GMT
        Subject: C=oo, ST=oo, L=oo, O=oo, OU=oo, CN=Pen
        Subject Public Key Info:
            Public Key Algorithm: rsaEncryption
                RSA Public-Key: (4096 bit)
                Modulus:
                    00:bd:16:4e:de:d2:40:ba:c3:7d:53:a4:b2:b3:d3:
                    e4:a0:44:91:0b:85:a1:94:63:ed:38:f7:bc:12:ad:
                    20:c0:70:4b:6f:e4:bc:84:29:d8:87:32:91:aa:d3:
                    29:c9:17:9f:73:fb:16:11:c6:68:d7:03:06:5b:04:
                    05:23:ae:e0:f4:c2:a5:e0:4d:dc:54:02:c8:4c:13:
                    5b:c1:1c:b8:c9:4c:ef:98:cc:a6:6f:b8:bd:3e:d5:
                    54:d1:37:6f:93:26:f1:ef:fb:0d:40:12:5d:12:a2:
                    b1:6d:f2:c0:a7:cf:1d:74:ba:e4:44:16:a7:2d:5a:
                    45:f5:e7:c8:a8:a6:aa:11:be:df:3a:ba:fa:f7:3f:
                    91:68:df:25:88:5c:78:44:95:5a:92:b5:bf:03:c3:
                    45:4d:4f:38:6a:09:93:62:c7:a5:c5:14:d8:ae:f8:
                    23:c2:bf:5a:6a:ef:a0:b5:94:fd:34:05:46:52:bc:
                    cf:0f:ae:7e:80:44:fc:e3:b5:9f:29:32:b0:6a:52:
                    b3:32:a1:1c:f2:9b:81:bf:72:a7:96:90:9b:d5:ba:
                    7a:9a:57:cf:21:1a:08:a7:01:a5:bd:d6:47:c0:7a:
                    81:ba:7e:6c:0a:28:4a:69:25:99:0a:64:1f:cd:a0:
                    ed:48:17:42:40:25:41:32:6e:59:dc:ff:4f:57:23:
                    ae:b3:ba:df:32:88:2f:83:10:49:38:61:af:39:b5:
                    0d:1b:0d:1d:fb:b3:1c:f0:32:87:7e:e1:0d:98:b7:
                    bf:95:ba:de:f1:8d:2e:a9:8b:18:c0:f0:2f:e0:ad:
                    a6:95:3c:cd:c9:1d:47:03:6a:e8:af:13:00:02:de:
                    04:0b:5f:30:d1:69:b2:f5:6c:0b:57:ca:60:b4:34:
                    a6:8b:b4:3b:c2:58:3c:4b:a5:01:67:11:be:e2:dc:
                    f2:77:b8:14:59:dd:3e:4e:1d:54:b3:5c:05:54:7f:
                    24:85:34:13:e4:47:0d:71:96:b8:90:45:49:7f:42:
                    cb:2b:d1:7b:27:e9:56:b7:9f:81:d4:62:e0:42:0c:
                    df:72:77:ee:23:9d:d0:17:b9:2f:cc:fb:78:6a:05:
                    a5:f9:c2:5e:54:79:de:f4:47:55:49:59:0e:d7:64:
                    c1:66:a9:4f:2f:0a:c6:f1:b3:9a:95:1d:0d:35:d2:
                    ce:dd:9f:86:ea:7b:68:2b:7f:3c:0f:8d:c6:e4:a8:
                    58:f2:46:46:1a:71:74:07:02:a8:ae:10:95:c4:ea:
                    40:e4:b8:de:71:a4:84:4c:78:64:bc:a9:f4:7a:12:
                    ee:e0:d3:29:2b:a8:c8:63:c9:6f:29:ee:4a:c2:3e:
                    1a:63:11:66:d9:99:2f:55:e8:bc:c8:28:cf:66:5d:
                    64:1b:53
                Exponent: 65537 (0x10001)
    Signature Algorithm: md5WithRSAEncryption
         3d:a1:91:41:6e:3b:9a:98:4c:e8:46:11:05:0c:54:c1:e8:d4:
         15:b1:57:c5:60:94:66:17:1b:b6:41:43:28:2b:46:c3:0c:4d:
         60:23:89:b2:fc:0d:40:da:fc:e1:3d:7e:fa:90:58:07:91:ea:
         fd:88:7a:e0:cd:39:1b:b5:b1:d1:44:22:18:38:0d:b7:7f:63:
         43:2c:35:91:f5:09:9a:4c:be:6b:83:63:5b:9d:d1:82:47:2c:
         56:99:a4:7c:e2:e3:b4:22:18:8c:ff:41:a6:89:3e:29:16:70:
         12:11:54:a3:30:18:0f:f9:f6:8e:36:0c:4c:1c:9e:b7:78:1e:
         eb:a0:0b:c1:f8:07:b1:87:46:56:a7:d3:93:cc:6c:fc:6a:eb:
         10:35:0c:cf:3e:ff:bd:f0:9f:67:9c:e1:db:26:4a:aa:0f:ba:
         c9:23:0e:16:52:a9:61:ae:af:30:ab:47:44:ec:84:6f:92:59:
         27:76:2d:9c:61:19:92:14:52:38:ab:6f:c8:54:48:b7:47:58:
         c2:e5:4c:b1:15:7e:f6:fd:9d:07:ea:90:ad:e3:7c:15:c3:8a:
         75:4d:ee:c5:9b:10:29:80:5b:24:70:9d:a8:e5:c2:64:37:27:
         77:08:ef:52:3f:f4:28:87:2a:05:a6:31:25:33:d8:c1:62:78:
         83:06:ec:a8
-----BEGIN CERTIFICATE-----
MIIEOzCCAyMCAhI0MA0GCSqGSIb3DQEBBAUAMHcxCzAJBgNVBAYTAlJVMQ8wDQYD
VQQIDAZNb3Njb3cxDzANBgNVBAcMBk1vc2NvdzEbMBkGA1UECgwSZ3JlYXQgbm8u
MSBjb21wYW55MQ0wCwYDVQQLDAQwMENBMRowGAYDVQQDDBFyb290X2dyZWF0X24x
LmNvbTAeFw0yMjA1MjkxNDI0MjlaFw0yMzA1MjkxNDI0MjlaME8xCzAJBgNVBAYT
Am9vMQswCQYDVQQIDAJvbzELMAkGA1UEBwwCb28xCzAJBgNVBAoMAm9vMQswCQYD
VQQLDAJvbzEMMAoGA1UEAwwDUGVuMIICIjANBgkqhkiG9w0BAQEFAAOCAg8AMIIC
CgKCAgEAvRZO3tJAusN9U6Sys9PkoESRC4WhlGPtOPe8Eq0gwHBLb+S8hCnYhzKR
qtMpyRefc/sWEcZo1wMGWwQFI67g9MKl4E3cVALITBNbwRy4yUzvmMymb7i9PtVU
0Tdvkybx7/sNQBJdEqKxbfLAp88ddLrkRBanLVpF9efIqKaqEb7fOrr69z+RaN8l
iFx4RJVakrW/A8NFTU84agmTYselxRTYrvgjwr9aau+gtZT9NAVGUrzPD65+gET8
47WfKTKwalKzMqEc8puBv3KnlpCb1bp6mlfPIRoIpwGlvdZHwHqBun5sCihKaSWZ
CmQfzaDtSBdCQCVBMm5Z3P9PVyOus7rfMogvgxBJOGGvObUNGw0d+7Mc8DKHfuEN
mLe/lbre8Y0uqYsYwPAv4K2mlTzNyR1HA2rorxMAAt4EC18w0Wmy9WwLV8pgtDSm
i7Q7wlg8S6UBZxG+4tzyd7gUWd0+Th1Us1wFVH8khTQT5EcNcZa4kEVJf0LLK9F7
J+lWt5+B1GLgQgzfcnfuI53QF7kvzPt4agWl+cJeVHne9EdVSVkO12TBZqlPLwrG
8bOalR0NNdLO3Z+G6ntoK388D43G5KhY8kZGGnF0BwKorhCVxOpA5LjecaSETHhk
vKn0ehLu4NMpK6jIY8lvKe5Kwj4aYxFm2ZkvVei8yCjPZl1kG1MCAwEAATANBgkq
hkiG9w0BAQQFAAOCAQEAPaGRQW47mphM6EYRBQxUwejUFbFXxWCUZhcbtkFDKCtG
wwxNYCOJsvwNQNr84T1++pBYB5Hq/Yh64M05G7Wx0UQiGDgNt39jQyw1kfUJmky+
a4NjW53RgkcsVpmkfOLjtCIYjP9Bpok+KRZwEhFUozAYD/n2jjYMTByet3ge66AL
wfgHsYdGVqfTk8xs/GrrEDUMzz7/vfCfZ5zh2yZKqg+6ySMOFlKpYa6vMKtHROyE
b5JZJ3YtnGEZkhRSOKtvyFRIt0dYwuVMsRV+9v2dB+qQreN8FcOKdU3uxZsQKYBb
JHCdqOXCZDcndwjvUj/0KIcqBaYxJTPYwWJ4gwbsqA==
-----END CERTIFICATE-----